target datalayout = "e-m:e-p270:32:32-p271:32:32-p272:64:64-i64:64-i128:128-f80:128-n8:16:32:64-S128"
target triple = "x86_64-pc-linux-gnu"

@ff_log2_tab = external constant [256 x i8], align 16

; Function Attrs: alwaysinline nounwind willreturn memory(none) uwtable
define internal signext i16 @av_clip_int16_c(i32 noundef %0) #5 {
  %2 = alloca i16, align 2
  %3 = alloca i32, align 4
  store i32 %0, ptr %3, align 4, !tbaa !13
  %4 = load i32, ptr %3, align 4, !tbaa !13
  %5 = add i32 %4, 32768
  %6 = and i32 %5, -65536
  %7 = icmp ne i32 %6, 0
  br i1 %7, label %8, label %13

8:                                                ; preds = %1
  %9 = load i32, ptr %3, align 4, !tbaa !13
  %10 = ashr i32 %9, 31
  %11 = xor i32 %10, 32767
  %12 = trunc i32 %11 to i16
  store i16 %12, ptr %2, align 2
  br label %16

13:                                               ; preds = %1
  %14 = load i32, ptr %3, align 4, !tbaa !13
  %15 = trunc i32 %14 to i16
  store i16 %15, ptr %2, align 2
  br label %16

16:                                               ; preds = %13, %8
  %17 = load i16, ptr %2, align 2
  ret i16 %17
}

; Function Attrs: inlinehint nounwind uwtable
define internal i32 @bidir_sal(i32 noundef %0, i32 noundef %1) #6 {
  %3 = alloca i32, align 4
  %4 = alloca i32, align 4
  %5 = alloca i32, align 4
  store i32 %0, ptr %4, align 4, !tbaa !13
  store i32 %1, ptr %5, align 4, !tbaa !13
  %6 = load i32, ptr %5, align 4, !tbaa !13
  %7 = icmp slt i32 %6, 0
  br i1 %7, label %8, label %13

8:                                                ; preds = %2
  %9 = load i32, ptr %4, align 4, !tbaa !13
  %10 = load i32, ptr %5, align 4, !tbaa !13
  %11 = sub nsw i32 0, %10
  %12 = lshr i32 %9, %11
  store i32 %12, ptr %3, align 4
  br label %17

13:                                               ; preds = %2
  %14 = load i32, ptr %4, align 4, !tbaa !13
  %15 = load i32, ptr %5, align 4, !tbaa !13
  %16 = shl i32 %14, %15
  store i32 %16, ptr %3, align 4
  br label %17

17:                                               ; preds = %13, %8
  %18 = load i32, ptr %3, align 4
  ret i32 %18
}

; Function Attrs: alwaysinline nounwind willreturn memory(none) uwtable
define internal i32 @ff_log2_c(i32 noundef %0) #5 {
  %2 = alloca i32, align 4
  %3 = alloca i32, align 4
  store i32 %0, ptr %2, align 4, !tbaa !13
  call void @llvm.lifetime.start.p0(i64 4, ptr %3) #7
  store i32 0, ptr %3, align 4, !tbaa !13
  %4 = load i32, ptr %2, align 4, !tbaa !13
  %5 = and i32 %4, -65536
  %6 = icmp ne i32 %5, 0
  br i1 %6, label %7, label %12

7:                                                ; preds = %1
  %8 = load i32, ptr %2, align 4, !tbaa !13
  %9 = lshr i32 %8, 16
  store i32 %9, ptr %2, align 4, !tbaa !13
  %10 = load i32, ptr %3, align 4, !tbaa !13
  %11 = add nsw i32 %10, 16
  store i32 %11, ptr %3, align 4, !tbaa !13
  br label %12

12:                                               ; preds = %7, %1
  %13 = load i32, ptr %2, align 4, !tbaa !13
  %14 = and i32 %13, 65280
  %15 = icmp ne i32 %14, 0
  br i1 %15, label %16, label %21

16:                                               ; preds = %12
  %17 = load i32, ptr %2, align 4, !tbaa !13
  %18 = lshr i32 %17, 8
  store i32 %18, ptr %2, align 4, !tbaa !13
  %19 = load i32, ptr %3, align 4, !tbaa !13
  %20 = add nsw i32 %19, 8
  store i32 %20, ptr %3, align 4, !tbaa !13
  br label %21

21:                                               ; preds = %16, %12
  %22 = load i32, ptr %2, align 4, !tbaa !13
  %23 = zext i32 %22 to i64
  %24 = getelementptr inbounds nuw [256 x i8], ptr @ff_log2_tab, i64 0, i64 %23
  %25 = load i8, ptr %24, align 1, !tbaa !40
  %26 = zext i8 %25 to i32
  %27 = load i32, ptr %3, align 4, !tbaa !13
  %28 = add nsw i32 %27, %26
  store i32 %28, ptr %3, align 4, !tbaa !13
  %29 = load i32, ptr %3, align 4, !tbaa !13
  call void @llvm.lifetime.end.p0(i64 4, ptr %3) #7
  ret i32 %29
}

; Function Attrs: nounwind uwtable
define signext i16 @ff_g729_adaptive_gain_control(i32 noundef %0, i32 noundef %1, ptr noundef %2, i32 noundef %3, i16 noundef signext %4) #0 {
  %6 = alloca i16, align 2
  %7 = alloca i32, align 4
  %8 = alloca i32, align 4
  %9 = alloca ptr, align 8
  %10 = alloca i32, align 4
  %11 = alloca i16, align 2
  %12 = alloca i32, align 4
  %13 = alloca i32, align 4
  %14 = alloca i32, align 4
  %15 = alloca i32, align 4
  %16 = alloca i32, align 4
  store i32 %0, ptr %7, align 4, !tbaa !13
  store i32 %1, ptr %8, align 4, !tbaa !13
  store ptr %2, ptr %9, align 8, !tbaa !9
  store i32 %3, ptr %10, align 4, !tbaa !13
  store i16 %4, ptr %11, align 2, !tbaa !15
  call void @llvm.lifetime.start.p0(i64 4, ptr %12) #7
  call void @llvm.lifetime.start.p0(i64 4, ptr %13) #7
  call void @llvm.lifetime.start.p0(i64 4, ptr %14) #7
  call void @llvm.lifetime.start.p0(i64 4, ptr %15) #7
  %17 = load i32, ptr %8, align 4, !tbaa !13
  %18 = icmp ne i32 %17, 0
  br i1 %18, label %23, label %19

19:                                               ; preds = %5
  %20 = load i32, ptr %7, align 4, !tbaa !13
  %21 = icmp ne i32 %20, 0
  br i1 %21, label %22, label %23

22:                                               ; preds = %19
  store i16 0, ptr %6, align 2
  store i32 1, ptr %16, align 4
  br label %117

23:                                               ; preds = %19, %5
  %24 = load i32, ptr %7, align 4, !tbaa !13
  %25 = icmp ne i32 %24, 0
  br i1 %25, label %26, label %78

26:                                               ; preds = %23
  %27 = load i32, ptr %7, align 4, !tbaa !13
  %28 = call i32 @ff_log2_c(i32 noundef %27) #8
  %29 = sub nsw i32 14, %28
  store i32 %29, ptr %14, align 4, !tbaa !13
  %30 = load i32, ptr %7, align 4, !tbaa !13
  %31 = load i32, ptr %14, align 4, !tbaa !13
  %32 = call i32 @bidir_sal(i32 noundef %30, i32 noundef %31)
  store i32 %32, ptr %7, align 4, !tbaa !13
  %33 = load i32, ptr %8, align 4, !tbaa !13
  %34 = call i32 @ff_log2_c(i32 noundef %33) #8
  %35 = sub nsw i32 14, %34
  store i32 %35, ptr %15, align 4, !tbaa !13
  %36 = load i32, ptr %8, align 4, !tbaa !13
  %37 = load i32, ptr %15, align 4, !tbaa !13
  %38 = call i32 @bidir_sal(i32 noundef %36, i32 noundef %37)
  store i32 %38, ptr %8, align 4, !tbaa !13
  %39 = load i32, ptr %7, align 4, !tbaa !13
  %40 = load i32, ptr %8, align 4, !tbaa !13
  %41 = icmp slt i32 %39, %40
  br i1 %41, label %42, label %53

42:                                               ; preds = %26
  %43 = load i32, ptr %7, align 4, !tbaa !13
  %44 = shl i32 %43, 15
  %45 = load i32, ptr %8, align 4, !tbaa !13
  %46 = sdiv i32 %44, %45
  store i32 %46, ptr %12, align 4, !tbaa !13
  %47 = load i32, ptr %12, align 4, !tbaa !13
  %48 = load i32, ptr %15, align 4, !tbaa !13
  %49 = load i32, ptr %14, align 4, !tbaa !13
  %50 = sub nsw i32 %48, %49
  %51 = sub nsw i32 %50, 1
  %52 = call i32 @bidir_sal(i32 noundef %47, i32 noundef %51)
  store i32 %52, ptr %12, align 4, !tbaa !13
  br label %66

53:                                               ; preds = %26
  %54 = load i32, ptr %7, align 4, !tbaa !13
  %55 = load i32, ptr %8, align 4, !tbaa !13
  %56 = sub nsw i32 %54, %55
  %57 = shl i32 %56, 14
  %58 = load i32, ptr %8, align 4, !tbaa !13
  %59 = sdiv i32 %57, %58
  %60 = add nsw i32 %59, 16384
  store i32 %60, ptr %12, align 4, !tbaa !13
  %61 = load i32, ptr %12, align 4, !tbaa !13
  %62 = load i32, ptr %15, align 4, !tbaa !13
  %63 = load i32, ptr %14, align 4, !tbaa !13
  %64 = sub nsw i32 %62, %63
  %65 = call i32 @bidir_sal(i32 noundef %61, i32 noundef %64)
  store i32 %65, ptr %12, align 4, !tbaa !13
  br label %66

66:                                               ; preds = %53, %42
  %67 = load i32, ptr %12, align 4, !tbaa !13
  %68 = icmp ugt i32 %67, 32767
  br i1 %68, label %69, label %70

69:                                               ; preds = %66
  br label %72

70:                                               ; preds = %66
  %71 = load i32, ptr %12, align 4, !tbaa !13
  br label %72

72:                                               ; preds = %70, %69
  %73 = phi i32 [ 32767, %69 ], [ %71, %70 ]
  store i32 %73, ptr %12, align 4, !tbaa !13
  %74 = load i32, ptr %12, align 4, !tbaa !13
  %75 = mul i32 %74, 410
  %76 = add i32 %75, 16384
  %77 = lshr i32 %76, 15
  store i32 %77, ptr %12, align 4, !tbaa !13
  br label %79

78:                                               ; preds = %23
  store i32 0, ptr %12, align 4, !tbaa !13
  br label %79

79:                                               ; preds = %78, %72
  store i32 0, ptr %13, align 4, !tbaa !13
  br label %80

80:                                               ; preds = %112, %79
  %81 = load i32, ptr %13, align 4, !tbaa !13
  %82 = load i32, ptr %10, align 4, !tbaa !13
  %83 = icmp slt i32 %81, %82
  br i1 %83, label %84, label %115

84:                                               ; preds = %80
  %85 = load i16, ptr %11, align 2, !tbaa !15
  %86 = sext i16 %85 to i32
  %87 = mul nsw i32 32358, %86
  %88 = add nsw i32 %87, 16384
  %89 = ashr i32 %88, 15
  %90 = trunc i32 %89 to i16
  store i16 %90, ptr %11, align 2, !tbaa !15
  %91 = load i32, ptr %12, align 4, !tbaa !13
  %92 = load i16, ptr %11, align 2, !tbaa !15
  %93 = sext i16 %92 to i32
  %94 = add i32 %91, %93
  %95 = call signext i16 @av_clip_int16_c(i32 noundef %94) #8
  store i16 %95, ptr %11, align 2, !tbaa !15
  %96 = load ptr, ptr %9, align 8, !tbaa !9
  %97 = load i32, ptr %13, align 4, !tbaa !13
  %98 = sext i32 %97 to i64
  %99 = getelementptr inbounds i16, ptr %96, i64 %98
  %100 = load i16, ptr %99, align 2, !tbaa !15
  %101 = sext i16 %100 to i32
  %102 = load i16, ptr %11, align 2, !tbaa !15
  %103 = sext i16 %102 to i32
  %104 = mul nsw i32 %101, %103
  %105 = add nsw i32 %104, 8192
  %106 = ashr i32 %105, 14
  %107 = call signext i16 @av_clip_int16_c(i32 noundef %106) #8
  %108 = load ptr, ptr %9, align 8, !tbaa !9
  %109 = load i32, ptr %13, align 4, !tbaa !13
  %110 = sext i32 %109 to i64
  %111 = getelementptr inbounds i16, ptr %108, i64 %110
  store i16 %107, ptr %111, align 2, !tbaa !15
  br label %112

112:                                              ; preds = %84
  %113 = load i32, ptr %13, align 4, !tbaa !13
  %114 = add nsw i32 %113, 1
  store i32 %114, ptr %13, align 4, !tbaa !13
  br label %80, !llvm.loop !39

115:                                              ; preds = %80
  %116 = load i16, ptr %11, align 2, !tbaa !15
  store i16 %116, ptr %6, align 2
  store i32 1, ptr %16, align 4
  br label %117

117:                                              ; preds = %115, %22
  call void @llvm.lifetime.end.p0(i64 4, ptr %15) #7
  call void @llvm.lifetime.end.p0(i64 4, ptr %14) #7
  call void @llvm.lifetime.end.p0(i64 4, ptr %13) #7
  call void @llvm.lifetime.end.p0(i64 4, ptr %12) #7
  %118 = load i16, ptr %6, align 2
  ret i16 %118
}