; Function Attrs: nofree norecurse nosync nounwind memory(argmem: readwrite) uwtable
define signext i16 @ff_g729_adaptive_gain_control(i32 noundef %0, i32 noundef %1, ptr noundef captures(none) %2, i32 noundef %3, i16 noundef signext %4) local_unnamed_addr #5 {
  %6 = icmp eq i32 %1, 0
  %7 = icmp ne i32 %0, 0
  %or.cond = and i1 %7, %6
  br i1 %or.cond, label %.loopexit, label %8

8:                                                ; preds = %5
  br i1 %7, label %9, label %60

9:                                                ; preds = %8
  %.not.i = icmp ult i32 %0, 65536
  %10 = lshr i32 %0, 16
  %spec.select.i = select i1 %.not.i, i32 %0, i32 %10
  %spec.select12.i = select i1 %.not.i, i32 0, i32 16
  %.not11.i = icmp samesign ult i32 %spec.select.i, 256
  %11 = lshr i32 %spec.select.i, 8
  %12 = or disjoint i32 %spec.select12.i, 8
  %.110.i = select i1 %.not11.i, i32 %spec.select.i, i32 %11
  %.1.i = select i1 %.not11.i, i32 %spec.select12.i, i32 %12
  %13 = zext nneg i32 %.110.i to i64
  %14 = getelementptr inbounds nuw [256 x i8], ptr @ff_log2_tab, i64 0, i64 %13
  %15 = load i8, ptr %14, align 1, !tbaa !14
  %16 = zext i8 %15 to i32
  %17 = add nuw nsw i32 %.1.i, %16
  %.neg = add nsw i32 %17, -14
  %18 = sub nsw i32 14, %17
  %19 = icmp samesign ugt i32 %17, 14
  %20 = lshr i32 %0, %.neg
  %21 = shl i32 %0, %18
  %.0.i55 = select i1 %19, i32 %20, i32 %21
  %.not.i46 = icmp ult i32 %1, 65536
  %22 = lshr i32 %1, 16
  %spec.select.i47 = select i1 %.not.i46, i32 %1, i32 %22
  %spec.select12.i48 = select i1 %.not.i46, i32 0, i32 16
  %.not11.i49 = icmp samesign ult i32 %spec.select.i47, 256
  %23 = lshr i32 %spec.select.i47, 8
  %24 = or disjoint i32 %spec.select12.i48, 8
  %.110.i50 = select i1 %.not11.i49, i32 %spec.select.i47, i32 %23
  %.1.i51 = select i1 %.not11.i49, i32 %spec.select12.i48, i32 %24
  %25 = zext nneg i32 %.110.i50 to i64
  %26 = getelementptr inbounds nuw [256 x i8], ptr @ff_log2_tab, i64 0, i64 %25
  %27 = load i8, ptr %26, align 1, !tbaa !14
  %28 = zext i8 %27 to i32
  %29 = add nuw nsw i32 %.1.i51, %28
  %.neg59 = add nsw i32 %29, -14
  %30 = sub nsw i32 14, %29
  %31 = icmp samesign ugt i32 %29, 14
  %32 = lshr i32 %1, %.neg59
  %33 = shl i32 %1, %30
  %.0.i56 = select i1 %31, i32 %32, i32 %33
  %34 = icmp slt i32 %.0.i55, %.0.i56
  br i1 %34, label %35, label %44

35:                                               ; preds = %9
  %36 = shl i32 %.0.i55, 15
  %37 = sdiv i32 %36, %.0.i56
  %38 = xor i32 %29, -1
  %39 = add nsw i32 %17, %38
  %40 = icmp slt i32 %39, 0
  %41 = sub nsw i32 0, %39
  %42 = lshr i32 %37, %41
  %43 = shl i32 %37, %39
  %.0.i57 = select i1 %40, i32 %42, i32 %43
  br label %54

44:                                               ; preds = %9
  %45 = sub nsw i32 %.0.i55, %.0.i56
  %46 = shl i32 %45, 14
  %47 = sdiv i32 %46, %.0.i56
  %48 = add nsw i32 %47, 16384
  %49 = sub nsw i32 %30, %18
  %50 = icmp slt i32 %49, 0
  %51 = sub nsw i32 0, %49
  %52 = lshr i32 %48, %51
  %53 = shl i32 %48, %49
  %.0.i58 = select i1 %50, i32 %52, i32 %53
  br label %54

54:                                               ; preds = %44, %35
  %.039 = phi i32 [ %.0.i57, %35 ], [ %.0.i58, %44 ]
  %55 = tail call i32 @llvm.umin.i32(i32 %.039, i32 32767)
  %56 = mul nuw nsw i32 %55, 410
  %57 = add nuw nsw i32 %56, 16384
  %58 = lshr i32 %57, 15
  %59 = trunc nuw nsw i32 %58 to i16
  br label %60

60:                                               ; preds = %8, %54
  %.1 = phi i16 [ %59, %54 ], [ 0, %8 ]
  %61 = icmp sgt i32 %3, 0
  br i1 %61, label %.lr.ph.preheader, label %.loopexit

.lr.ph.preheader:                                 ; preds = %60
  %wide.trip.count = zext nneg i32 %3 to i64
  br label %.lr.ph

.lr.ph:                                           ; preds = %.lr.ph.preheader, %.lr.ph
  %indvars.iv = phi i64 [ 0, %.lr.ph.preheader ], [ %indvars.iv.next, %.lr.ph ]
  %.04060 = phi i16 [ %4, %.lr.ph.preheader ], [ %67, %.lr.ph ]
  %62 = sext i16 %.04060 to i32
  %63 = mul nsw i32 %62, 64716
  %64 = add nsw i32 %63, 32768
  %65 = lshr i32 %64, 16
  %66 = trunc nuw i32 %65 to i16
  %67 = tail call i16 @llvm.sadd.sat.i16(i16 %.1, i16 %66)
  %68 = getelementptr inbounds nuw i16, ptr %2, i64 %indvars.iv
  %69 = load i16, ptr %68, align 2, !tbaa !4
  %70 = sext i16 %69 to i32
  %71 = sext i16 %67 to i32
  %72 = mul nsw i32 %70, %71
  %73 = add nsw i32 %72, 8192
  %74 = ashr i32 %73, 14
  %75 = tail call i32 @llvm.smax.i32(i32 %74, i32 -32768)
  %76 = tail call i32 @llvm.smin.i32(i32 %75, i32 32767)
  %.0.i54 = trunc nsw i32 %76 to i16
  store i16 %.0.i54, ptr %68, align 2, !tbaa !4
  %indvars.iv.next = add nuw nsw i64 %indvars.iv, 1
  %exitcond.not = icmp eq i64 %indvars.iv.next, %wide.trip.count
  br i1 %exitcond.not, label %.loopexit, label %.lr.ph, !llvm.loop !32

.loopexit:                                        ; preds = %.lr.ph, %60, %5
  %.0 = phi i16 [ 0, %5 ], [ %4, %60 ], [ %67, %.lr.ph ]
  ret i16 %.0
}